Certificate:
    Data:
        Version: 3 (0x2)
        Serial Number: 4662 (0x1236)
    Signature Algorithm: sha256WithRSAEncryption
        Issuer: C=DE, ST=Hessen, L=Giessen, O=Technische Hochschule Mittelhessen CA, CN=ei-fogserver03.ei.thm.de/emailAddress=admin@ei.thm.de
        Validity
            Not Before: Oct 24 20:08:53 2019 GMT
            Not After : Oct 23 20:08:53 2020 GMT
        Subject: C=DE, ST=Hessen, L=Giessen, O=Technische Hochschule Mittelhessen NB_IoTClient, CN=ei-fogserver03.ei.thm.de/emailAddress=admin@ei.thm.de
        Subject Public Key Info:
            Public Key Algorithm: rsaEncryption
                Public-Key: (2048 bit)
                Modulus:
                    00:b9:ba:19:04:49:85:26:12:3c:7d:94:b6:7d:76:
                    12:ae:87:7d:b1:91:58:a7:92:0c:6c:42:16:67:47:
                    7f:7a:d3:07:2d:1d:e8:5b:ab:08:a0:a2:00:d5:73:
                    d1:57:f8:df:38:2b:98:4a:8a:3a:d1:50:a9:34:b7:
                    f3:44:97:32:30:4e:49:01:5c:52:e1:ca:27:c0:5b:
                    09:c1:3b:c9:bd:6c:0b:d0:bd:4c:d3:c8:e5:59:42:
                    5a:16:5b:15:9f:7a:4e:4d:f1:54:e9:c7:82:ea:a6:
                    53:d5:6a:dc:b2:31:15:b5:c6:98:12:da:a7:68:94:
                    96:40:ec:6e:83:28:65:83:08:01:59:83:df:c0:2a:
                    b3:f2:01:62:d8:04:d9:c2:bd:12:93:62:54:ab:f8:
                    f5:6d:7b:f5:5b:1c:d6:0c:51:bf:fa:66:8b:79:43:
                    46:a3:8d:3c:f8:57:d4:fe:90:97:e1:64:80:77:b5:
                    af:90:74:f1:11:16:8a:6a:ce:3d:39:47:1a:99:c4:
                    75:85:c8:bb:27:db:f6:32:ce:92:96:66:09:3b:f8:
                    1d:b9:ea:81:b7:cc:d6:9b:6a:fd:8e:ca:ac:76:20:
                    eb:fb:c7:80:89:20:2e:4b:5f:ac:d1:50:96:6b:dc:
                    ac:d7:0f:98:5d:ba:9b:1e:28:f5:55:65:55:8c:0a:
                    53:99
                Exponent: 65537 (0x10001)
        X509v3 extensions:
            X509v3 Basic Constraints: 
                CA:FALSE
            Netscape Comment: 
                OpenSSL Generated Certificate
            X509v3 Subject Key Identifier: 
                FB:26:D7:BE:AA:93:FA:18:85:35:FC:4B:E8:51:54:96:FF:30:EA:2A
            X509v3 Authority Key Identifier: 
                keyid:52:6C:15:92:E4:25:BF:09:60:FB:FE:D5:6D:A7:2F:FF:8F:08:CC:CD

    Signature Algorithm: sha256WithRSAEncryption
         5f:99:6f:f7:28:79:05:b9:66:82:27:67:6a:ec:73:c1:98:18:
         7f:1e:b5:57:ad:97:f7:eb:77:bd:36:e4:63:1e:95:8c:9e:3e:
         10:38:25:04:38:4b:bc:ec:6d:fd:3b:ef:58:89:2b:d6:79:d5:
         55:b6:10:e2:16:90:e3:99:aa:c5:87:20:d2:6c:7a:88:d1:e1:
         5c:e2:af:47:d4:81:87:da:ad:b1:f7:b8:67:bc:e6:a7:e1:e2:
         3d:d3:f8:14:cc:c8:52:7a:49:38:13:ef:6d:f3:35:42:dc:02:
         00:9f:9e:1a:3f:94:b5:c2:74:46:5e:c7:bb:8c:80:32:33:ed:
         44:67:c3:07:e7:c3:fe:94:1c:0d:2a:50:44:14:84:7c:26:f7:
         32:6c:77:57:7b:98:03:b2:03:21:a3:05:a0:f5:43:0a:91:d3:
         73:93:fb:cd:b5:d6:d4:15:78:a9:ce:ad:7e:a9:d1:b3:2d:fb:
         d7:89:30:7c:51:e3:bd:e4:0a:e4:d4:85:48:f1:3f:a6:55:49:
         02:6f:22:7a:bd:c9:69:ec:10:ae:f1:36:89:37:6a:89:8e:ed:
         ae:55:a1:b9:7e:5a:0c:d9:51:3e:85:43:ee:3e:20:c0:1d:b8:
         da:97:5c:62:00:a4:fe:6c:04:53:c1:c9:74:b7:72:2d:9c:c6:
         d4:76:73:2b:e5:1c:4d:46:99:ae:ab:0b:32:a5:74:62:c0:e0:
         8f:e1:c2:ba:11:72:7e:92:76:8f:d6:bc:8a:1e:dc:57:f8:25:
         42:32:6a:00:53:fa:bf:75:b3:01:f1:c6:ff:ea:fb:b4:d5:23:
         1e:4e:2b:cd:87:ae:d9:d6:fb:40:bc:9f:88:dd:09:29:05:de:
         c4:a6:08:f6:ff:32:4e:6a:de:c6:42:16:d5:cc:05:7b:1c:f3:
         33:90:96:98:0b:fd:1f:cc:75:68:3f:e9:69:21:55:ec:2c:bf:
         2b:db:31:e0:09:ac:28:45:5a:1b:d9:49:46:04:23:2e:bf:3a:
         19:5c:8a:cc:a3:dd:5e:e7:b4:8c:d4:c5:2a:0a:7a:ce:46:84:
         af:fa:91:d1:c6:7f:17:89:0d:a2:7a:1b:ca:c5:cc:82:31:99:
         2f:4c:46:65:d8:78:83:2c:a5:48:ff:51:e7:0a:99:7f:40:63:
         00:06:ae:86:c2:83:f0:08:6b:73:4a:39:bd:40:a7:f2:ae:3b:
         24:9b:19:c7:07:ad:83:79:16:10:23:03:d8:d9:d4:ec:88:aa:
         3a:77:aa:00:cc:b8:8a:46:35:7b:6e:93:90:36:00:4e:c6:06:
         b0:cf:ec:8c:49:ec:cd:79:ff:16:62:e4:86:fe:b9:f4:c2:35:
         30:ab:a4:37:dd:19:e4:25
-----BEGIN CERTIFICATE-----
MIIFSTCCAzGgAwIBAgICEjYwDQYJKoZIhvcNAQELBQAwgaMxCzAJBgNVBAYTAkRF
MQ8wDQYDVQQIDAZIZXNzZW4xEDAOBgNVBAcMB0dpZXNzZW4xLjAsBgNVBAoMJVRl
Y2huaXNjaGUgSG9jaHNjaHVsZSBNaXR0ZWxoZXNzZW4gQ0ExITAfBgNVBAMMGGVp
LWZvZ3NlcnZlcjAzLmVpLnRobS5kZTEeMBwGCSqGSIb3DQEJARYPYWRtaW5AZWku
dGhtLmRlMB4XDTE5MTAyNDIwMDg1M1oXDTIwMTAyMzIwMDg1M1owga0xCzAJBgNV
BAYTAkRFMQ8wDQYDVQQIDAZIZXNzZW4xEDAOBgNVBAcMB0dpZXNzZW4xODA2BgNV
BAoML1RlY2huaXNjaGUgSG9jaHNjaHVsZSBNaXR0ZWxoZXNzZW4gTkJfSW9UQ2xp
ZW50MSEwHwYDVQQDDBhlaS1mb2dzZXJ2ZXIwMy5laS50aG0uZGUxHjAcBgkqhkiG
9w0BCQEWD2FkbWluQGVpLnRobS5kZTCCASIwDQYJKoZIhvcNAQEBBQADggEPADCC
AQoCggEBALm6GQRJhSYSPH2Utn12Eq6HfbGRWKeSDGxCFmdHf3rTBy0d6FurCKCi
ANVz0Vf43zgrmEqKOtFQqTS380SXMjBOSQFcUuHKJ8BbCcE7yb1sC9C9TNPI5VlC
WhZbFZ96Tk3xVOnHguqmU9Vq3LIxFbXGmBLap2iUlkDsboMoZYMIAVmD38Aqs/IB
YtgE2cK9EpNiVKv49W179Vsc1gxRv/pmi3lDRqONPPhX1P6Ql+FkgHe1r5B08REW
imrOPTlHGpnEdYXIuyfb9jLOkpZmCTv4HbnqgbfM1ptq/Y7KrHYg6/vHgIkgLktf
rNFQlmvcrNcPmF26mx4o9VVlVYwKU5kCAwEAAaN7MHkwCQYDVR0TBAIwADAsBglg
hkgBhvhCAQ0EHxYdT3BlblNTTCBHZW5lcmF0ZWQgQ2VydGlmaWNhdGUwHQYDVR0O
BBYEFPsm176qk/oYhTX8S+hRVJb/MOoqMB8GA1UdIwQYMBaAFFJsFZLkJb8JYPv+
1W2nL/+PCMzNMA0GCSqGSIb3DQEBCwUAA4ICAQBfmW/3KHkFuWaCJ2dq7HPBmBh/
HrVXrZf363e9NuRjHpWMnj4QOCUEOEu87G39O+9YiSvWedVVthDiFpDjmarFhyDS
bHqI0eFc4q9H1IGH2q2x97hnvOan4eI90/gUzMhSekk4E+9t8zVC3AIAn54aP5S1
wnRGXse7jIAyM+1EZ8MH58P+lBwNKlBEFIR8JvcybHdXe5gDsgMhowWg9UMKkdNz
k/vNtdbUFXipzq1+qdGzLfvXiTB8UeO95Ark1IVI8T+mVUkCbyJ6vclp7BCu8TaJ
N2qJju2uVaG5floM2VE+hUPuPiDAHbjal1xiAKT+bARTwcl0t3ItnMbUdnMr5RxN
RpmuqwsypXRiwOCP4cK6EXJ+knaP1ryKHtxX+CVCMmoAU/q/dbMB8cb/6vu01SMe
TivNh67Z1vtAvJ+I3QkpBd7Epgj2/zJOat7GQhbVzAV7HPMzkJaYC/0fzHVoP+lp
IVXsLL8r2zHgCawoRVob2UlGBCMuvzoZXIrMo91e57SM1MUqCnrORoSv+pHRxn8X
iQ2iehvKxcyCMZkvTEZl2HiDLKVI/1HnCpl/QGMABq6GwoPwCGtzSjm9QKfyrjsk
mxnHB62DeRYQIwPY2dTsiKo6d6oAzLiKRjV7bpOQNgBOxgawz+yMSezNef8WYuSG
/rn0wjUwq6Q33RnkJQ==
-----END CERTIFICATE-----
